; Function Attrs: mustprogress uwtable
define noundef i32 @_ZNK6casadi3Low10sp_forwardEPPKyPPyPxS4_(ptr noundef nonnull align 8 dereferenceable(72) %0, ptr nocapture readnone %1, ptr nocapture noundef readonly %2, ptr nocapture readnone %3, ptr nocapture readnone %4) unnamed_addr #3 align 2 {
  %6 = load ptr, ptr %2, align 8
  %7 = load ptr, ptr %0, align 8
  %8 = getelementptr inbounds i8, ptr %7, i64 352
  %9 = load ptr, ptr %8, align 8
  %10 = tail call noundef nonnull align 8 dereferenceable(8) ptr %9(ptr noundef nonnull align 8 dereferenceable(64) %0, i64 noundef 0)
  %11 = tail call noundef i64 @_ZNK6casadi8Sparsity3nnzEv(ptr noundef nonnull align 8 dereferenceable(8) %10)
  %12 = icmp slt i64 %11, 1
  br i1 %12, label %_ZSt6fill_nIPyxiET_S1_T0_RKT1_.exit, label %.lr.ph.i.i.i.i

.lr.ph.i.i.i.i:                                   ; preds = %5
  %13 = shl i64 %11, 3
  tail call void @llvm.memset.p0.i64(ptr align 8 %6, i8 0, i64 %13, i1 false)
  br label %_ZSt6fill_nIPyxiET_S1_T0_RKT1_.exit

_ZSt6fill_nIPyxiET_S1_T0_RKT1_.exit:              ; preds = %.lr.ph.i.i.i.i, %5
  ret i32 0
}